(dp0
I24064
S'85'
p1
sI24065
S'91e2'
p2
sI14051
S'87e28281'
p3
sI13318
S'bac2bd'
p4
sI8364
S'e2'
p5
sI18954
S'c2bd'
p6
sI17931
S'e288bac2'
p7
sI8627
S'88ad'
p8
sI14350
S'b6e2'
p9
sI16913
S'e288b3'
p10
sI14354
S'c2bd'
p11
sI20288
S'8590e282'
p12
sI13998
S'94e285'
p13
sI14871
S'b8e2'
p14
sI23064
S'e288b6e2'
p15
sI26140
S'b8e2'
p16
sI27167
S'e285'
p17
sI8736
S'89e28287'
p18
sI25008
S'89e28287'
p19
sI23586
S'88b6e288'
p20
sI11812
S'e288ab'
p21
sI15912
S'b0'
p22
sI7213
S'88abe288'
p23
sI11443
S'e28591'
p24
sI4660
S'88bac2bd'
p25
sI10805
S'87e28281'
p26
sI3126
S'e288'
p27
sI12343
S'85'
p28
sI12824
S'e288abe2'
p29
sI24415
S'8289e2'
p30
sI17468
S'89e2'
p31
sI25354
S'85'
p32
sI25151
S'88ad'
p33
sI17984
S'85'
p34
sI13408
S'90e282'
p35
sI20034
S'e2'
p36
sI16050
S'bac2'
p37
sI5190
S'c2'
p38
sI9287
S'b0e288ab'
p39
sI7755
S'e288'
p40
sI15437
S'91e285'
p41
sI2127
S'88ad'
p42
sI14930
S'b6e2'
p43
sI10835
S'e28594e2'
p44
sI9302
S'bac2bde2'
p45
sI13399
S'88'
p46
sI26212
S'8287e282'
p47
sI602
S'ad'
p48
sI10331
S'e28590e2'
p49
sI14941
S'90e282'
p50
sI17502
S'c2bd'
p51
sI23909
S'aae288'
p52
sI7776
S'8591e285'
p53
sI12385
S'91e2'
p54
sI12387
S'85'
p55
sI17508
S'8590e2'
p56
sI23654
S'b8e285'
p57
sI22630
S'88'
p58
sI26757
S'e28287e2'
p59
sI700
S'85'
p60
sI21100
S'88b6e2'
p61
sI7794
S'88b3e288'
p62
sI4883
S'8289e282'
p63
sI15989
S'e285'
p64
sI13336
S'e2'
p65
sI24695
S'b0e288'
p66
sI3192
S'b8e2'
p67
sI21113
S'e28289'
p68
sI11899
S'abe288ad'
p69
sI27772
S'88bac2bd'
p70
sI9057
S'8281e2'
p71
sI20611
S'87e2'
p72
sI2181
S'bae2'
p73
sI16006
S'b6e288ba'
p74
sI11911
S'ba'
p75
sI7557
S'88abe288'
p76
sI9637
S'8590e2'
p77
sI12058
S'e2'
p78
sI2699
S'88ade288'
p79
sI8898
S'b6e288ba'
p80
sI13454
S'8287e2'
p81
sI9439
S'87e2'
p82
sI16529
S'e28287'
p83
sI20626
S'abe288'
p84
sI14718
S'88'
p85
sI16535
S'e28591'
p86
sI22681
S'bac2bde2'
p87
sI4252
S'8594'
p88
sI8861
S'8594e285'
p89
sI19833
S'82'
p90
sI2721
S'e28287'
p91
sI14224
S'e28594e2'
p92
sI3398
S'e2'
p93
sI19142
S'8287e282'
p94
sI15016
S'e288b6'
p95
sI22698
S'81'
p96
sI10627
S'bac2bd'
p97
sI13923
S'e285'
p98
sI12974
S'88b3e2'
p99
sI28000
S'e28281e2'
p100
sI17074
S'e288abe2'
p101
sI27251
S'87e2'
p102
sI10420
S'8590e2'
p103
sI2742
S'e2'
p104
sI26296
S'e28281'
p105
sI16057
S'8590e282'
p106
sI25787
S'8289e282'
p107
sI13500
S'e285'
p108
sI1214
S'81e28591'
p109
sI10431
S'e285'
p110
sI11456
S'88aae288'
p111
sI6338
S'94e2'
p112
sI21190
S'8594e285'
p113
sI15394
S'abe288aa'
p114
sI25495
S'88ad'
p115
sI19669
S'82'
p116
sI12153
S'88b6'
p117
sI3290
S'e288bac2'
p118
sI24283
S'e285'
p119
sI1244
S'e28594'
p120
sI10463
S'e28590e2'
p121
sI4320
S'88'
p122
sI19681
S'85b0e2'
p123
sI1968
S'c2bd'
p124
sI12004
S'89e28287'
p125
sI742
S'90e28289'
p126
sI20200
S'8590'
p127
sI7548
S'8591'
p128
sI22086
S'abe288'
p129
sI2797
S'ba'
p130
sI4846
S'81'
p131
sI16623
S'e28591e2'
p132
sI26352
S'e288ad'
p133
sI21032
S'82'
p134
sI2803
S'e28590'
p135
sI4478
S'85'
p136
sI9977
S'e28287'
p137
sI9980
S'e28281e2'
p138
sI22741
S'e285b0e2'
p139
sI12545
S'e282'
p140
sI18178
S'81e285'
p141
sI23811
S'8281e2'
p142
sI6095
S'b0e288'
p143
sI23306
S'e282'
p144
sI5899
S'e2'
p145
sI3855
S'bd'
p146
sI4739
S'88'
p147
sI11054
S'81'
p148
sI11542
S'abe288aa'
p149
sI22808
S'e28594e2'
p150
sI14944
S'89'
p151
sI3866
S'94e28590'
p152
sI22299
S'88b3e2'
p153
sI23324
S'e288abe2'
p154
sI15645
S'90e2'
p155
sI3358
S'85b0e288'
p156
sI1413
S'aa'
p157
sI27936
S'e288'
p158
sI18210
S'94e28590'
p159
sI24870
S'88b6e2'
p160
sI10023
S'87e282'
p161
sI6957
S'e285'
p162
sI26414
S'8289e282'
p163
sI12765
S'e28287e2'
p164
sI2867
S'b0e288'
p165
sI19253
S'e2'
p166
sI18230
S'85'
p167
sI17033
S'e288abe2'
p168
sI26164
S'e2'
p169
sI24890
S'8281'
p170
sI18399
S'e288'
p171
sI26421
S'81e285'
p172
sI26944
S'b8'
p173
sI12000
S'8590e2'
p174
sI5442
S'e288b3'
p175
sI5445
S'e288b6'
p176
sI10566
S'e285b8'
p177
sI11080
S'88ba'
p178
sI20297
S'8281e2'
p179
sI11084
S'e285'
p180
sI23885
S'90e2'
p181
sI12110
S'b3e2'
p182
sI25741
S'90e28289'
p183
sI9553
S'94e285'
p184
sI11603
S'b3'
p185
sI14164
S'88aae2'
p186
sI6541
S'e285'
p187
sI13657
S'90e2'
p188
sI2396
S'e285'
p189
sI10589
S'e2'
p190
sI10078
S'85b0e2'
p191
sI2911
S'abe288ad'
p192
sI9568
S'91e285'
p193
sI10640
S'8287e282'
p194
sI23417
S'ade288'
p195
sI23833
S'b6'
p196
sI5477
S'e288abe2'
p197
sI15206
S'81'
p198
sI6506
S'e288'
p199
sI3948
S'88ba'
p200
sI14701
S'81e285'
p201
sI4465
S'e28287e2'
p202
sI18291
S'c2bde285'
p203
sI3444
S'b8e2'
p204
sI5493
S'bd'
p205
sI24440
S'ade2'
p206
sI377
S'e28591'
p207
sI12667
S'bde2'
p208
sI22396
S'90e2'
p209
sI11645
S'e288b3'
p210
sI18302
S'e2'
p211
sI4479
S'b0e288'
p212
sI14209
S'aae288'
p213
sI17282
S'e288ade2'
p214
sI3459
S'b3e288b6'
p215
sI24452
S'e285'
p216
sI10134
S'88b3e2'
p217
sI20360
S'ade2'
p218
sI15767
S'8594'
p219
sI6028
S'e288b6'
p220
sI3394
S'81'
p221
sI4494
S'bac2bd'
p222
sI8700
S'85'
p223
sI15762
S'88'
p224
sI17987
S'bde285'
p225
sI21398
S'c2bde285'
p226
sI22937
S'bac2bde2'
p227
sI11161
S'e2'
p228
sI8093
S'88b3e288'
p229
sI11999
S'e28590'
p230
sI4000
S'85'
p231
sI19440
S'e288b6'
p232
sI18851
S'85b8e2'
p233
sI7077
S'e28281e2'
p234
sI12956
S'8591e2'
p235
sI13226
S'88ad'
p236
sI10311
S'e2'
p237
sI13742
S'8287e282'
p238
sI2717
S'90e2'
p239
sI18864
S'ade288'
p240
sI25009
S'e28287'
p241
sI25523
S'e28591e2'
p242
sI18359
S'88'
p243
sI17225
S'87'
p244
sI952
S'8287e282'
p245
sI17851
S'e28590'
p246
sI9149
S'91e285b8'
p247
sI6133
S'91e285b8'
p248
sI100
S'8287e2'
p249
sI15810
S'e28590e2'
p250
sI10179
S'b3e2'
p251
sI27076
S'e28281'
p252
sI12743
S'88ade2'
p253
sI25032
S'b3'
p254
sI12620
S'88bac2bd'
p255
sI24522
S'abe288'
p256
sI5579
S'e285'
p257
sI26573
S'88b6e288'
p258
sI16846
S'8287'
p259
sI6607
S'bde2'
p260
sI9682
S'89e28287'
p261
sI15182
S'88'
p262
sI25046
S'90e2'
p263
sI5594
S'e285b8'
p264
sI25589
S'88b6e2'
p265
sI17686
S'81'
p266
sI16861
S'88abe288'
p267
sI10719
S'8289'
p268
sI16704
S'e285'
p269
sI20451
S'b3e2'
p270
sI17381
S'e28590'
p271
sI20454
S'b6e288ba'
p272
sI26089
S'82'
p273
sI8175
S'88b3e2'
p274
sI18928
S'8591e2'
p275
sI7666
S'94e2'
p276
sI9203
S'e288aa'
p277
sI12789
S'e288b3'
p278
sI18293
S'e285'
p279
sI3648
S'e2'
p280
sI6996
S'82'
p281
sI20905
S'e28590e2'
p282
sI15868
S'b8'
p283
sI12054
S'91e2'
p284
s.