(dp0
I8763
S'b3e288b6'
p1
sI16387
S'bd'
p2
sI18948
S'e288'
p3
sI9733
S'e2'
p4
sI12806
S'e282'
p5
sI11786
S'c2bd'
p6
sI17419
S'e28594e2'
p7
sI25614
S'e2'
p8
sI14351
S'e288'
p9
sI7699
S'b3e288'
p10
sI3645
S'e28287'
p11
sI1047
S'91e285b8'
p12
sI3096
S'e2'
p13
sI20505
S'8594'
p14
sI12314
S'88b3e288'
p15
sI19995
S'89e282'
p16
sI19607
S'e288'
p17
sI11805
S'91'
p18
sI4642
S'85b0'
p19
sI22107
S'e28590e2'
p20
sI8228
S'94e2'
p21
sI8229
S'e28590'
p22
sI6492
S'85'
p23
sI11818
S'e288'
p24
sI6190
S'e288ad'
p25
sI23090
S'e2'
p26
sI6707
S'87e2'
p27
sI21556
S'ade2'
p28
sI16438
S'e28289'
p29
sI7735
S'85b8'
p30
sI3128
S'bac2'
p31
sI1082
S'85'
p32
sI5691
S'e288b6'
p33
sI5693
S'b6e288'
p34
sI26805
S'8281e285'
p35
sI23648
S'81e28591'
p36
sI26178
S'91e285b8'
p37
sI5131
S'b3'
p38
sI4676
S'e28281'
p39
sI2389
S'88b6e2'
p40
sI6727
S'88'
p41
sI23113
S'bac2'
p42
sI4686
S'85'
p43
sI696
S'e285'
p44
sI25951
S'e2'
p45
sI20700
S'e28281'
p46
sI6741
S'8590'
p47
sI18105
S'aae288'
p48
sI19609
S'b3e2'
p49
sI10274
S'c2'
p50
sI8795
S'b0e288ab'
p51
sI15965
S'b6'
p52
sI6750
S'82'
p53
sI9824
S'e2'
p54
sI5729
S'e2'
p55
sI9738
S'b0e288'
p56
sI8803
S'88ad'
p57
sI21911
S'e288aae2'
p58
sI27750
S'e285b8'
p59
sI5222
S'e2'
p60
sI21095
S'ade288b3'
p61
sI15927
S'ba'
p62
sI21098
S'b3e288'
p63
sI17517
S'82'
p64
sI10350
S'85'
p65
sI624
S'8287e2'
p66
sI7560
S'88aae2'
p67
sI6675
S'b0e2'
p68
sI15038
S'85b0e288'
p69
sI4214
S'8590'
p70
sI24182
S'94'
p71
sI7296
S'b8e285b0'
p72
sI10884
S'89e282'
p73
sI12935
S'e2'
p74
sI925
S'e2'
p75
sI26004
S'8289e282'
p76
sI14479
S'ba'
p77
sI25741
S'90e2'
p78
sI4239
S'ade288b3'
p79
sI13354
S'e288'
p80
sI13973
S'e285b0'
p81
sI24215
S'b3e288b6'
p82
sI24217
S'88b6e2'
p83
sI3858
S'94e28590'
p84
sI6812
S'88b6'
p85
sI15898
S'e28287'
p86
sI671
S'85'
p87
sI1184
S'88aae2'
p88
sI27504
S'e285b8'
p89
sI1698
S'e2'
p90
sI16548
S'88aa'
p91
sI16039
S'e288ad'
p92
sI8689
S'90e28289'
p93
sI6773
S'e288'
p94
sI25259
S'8289e2'
p95
sI13341
S'b8e285b0'
p96
sI21168
S'b8e2'
p97
sI19612
S'b6e2'
p98
sI9909
S'aae288'
p99
sI25272
S'b8e285'
p100
sI17081
S'88'
p101
sI21279
S'89e2'
p102
sI15037
S'e285'
p103
sI6334
S'c2bde285'
p104
sI22954
S'81e2'
p105
sI2241
S'e285b0e2'
p106
sI16578
S'81e285'
p107
sI16075
S'85b0e288'
p108
sI25797
S'91e285b8'
p109
sI8754
S'abe288'
p110
sI1227
S'e288aa'
p111
sI1741
S'91e2'
p112
sI8399
S'e28287e2'
p113
sI17616
S'ade2'
p114
sI4468
S'e28281e2'
p115
sI27683
S'e2'
p116
sI7330
S'e2'
p117
sI14039
S'bde285'
p118
sI15066
S'e282'
p119
sI12508
S'8591'
p120
sI23775
S'e285b8'
p121
sI19681
S'85b0e2'
p122
sI4322
S'e2'
p123
sI22755
S'b3'
p124
sI25828
S'8590e282'
p125
sI1765
S'e2'
p126
sI13030
S'94e285'
p127
sI20712
S'e288ab'
p128
sI233
S'e28590e2'
p129
sI16107
S'8281'
p130
sI3314
S'85b8e2'
p131
sI18131
S'87'
p132
sI6388
S'89e28287'
p133
sI10486
S'ab'
p134
sI1271
S'e288aae2'
p135
sI14588
S'e2'
p136
sI20221
S'88ab'
p137
sI12542
S'e282'
p138
sI20224
S'88aa'
p139
sI17669
S'ba'
p140
sI23304
S'8590e282'
p141
sI7468
S'e288'
p142
sI19210
S'88b3e2'
p143
sI7383
S'e2'
p144
sI27918
S'e285b8e2'
p145
sI8466
S'b6e2'
p146
sI16259
S'e288ba'
p147
sI25366
S'88'
p148
sI16664
S'e282'
p149
sI6556
S'e288'
p150
sI23323
S'b0e2'
p151
sI19228
S'89e282'
p152
sI3357
S'e285b0'
p153
sI15135
S'88ade288'
p154
sI8994
S'94e2'
p155
sI4059
S'85b8'
p156
sI11671
S'e285'
p157
sI12694
S'abe288'
p158
sI4401
S'e288'
p159
sI18216
S'89e282'
p160
sI18908
S'88'
p161
sI12586
S'e28289'
p162
sI15239
S'e28590'
p163
sI2348
S'88ba'
p164
sI8242
S'8591'
p165
sI5936
S'ade2'
p166
sI8497
S'88abe288'
p167
sI4402
S'88ad'
p168
sI23348
S'8590'
p169
sI12597
S'91e285b8'
p170
sI8502
S'e288'
p171
sI24116
S'e288abe2'
p172
sI18747
S'e2'
p173
sI24892
S'e28591'
p174
sI23861
S'85'
p175
sI11584
S'8591'
p176
sI1504
S'ad'
p177
sI23362
S'e2'
p178
sI6539
S'85b8e2'
p179
sI18230
S'85b0'
p180
sI27462
S'91'
p181
sI22346
S'88bac2bd'
p182
sI22071
S'87'
p183
sI8526
S'82'
p184
sI9081
S'88b6e2'
p185
sI9040
S'88ba'
p186
sI20305
S'e2'
p187
sI817
S'c2bde2'
p188
sI13139
S'b0'
p189
sI26964
S'88ba'
p190
sI19285
S'8281e285'
p191
sI17752
S'e2'
p192
sI1370
S'e288ad'
p193
sI9051
S'8289e2'
p194
sI3932
S'e2'
p195
sI9445
S'91e285'
p196
sI21346
S'88b3e2'
p197
sI8547
S'88ade2'
p198
sI4964
S'e285'
p199
sI25231
S'b0'
p200
sI22934
S'b6e2'
p201
sI24477
S'88abe2'
p202
sI8508
S'e2'
p203
sI9066
S'85b0e2'
p204
sI26987
S'87e282'
p205
sI18796
S'89e282'
p206
sI20541
S'88b6'
p207
sI19824
S'8594e285'
p208
sI4840
S'89e282'
p209
sI12660
S'e288'
p210
sI17781
S'e2'
p211
sI18806
S'e2'
p212
sI21396
S'88bac2bd'
p213
sI22910
S'81e28591'
p214
sI5440
S'88'
p215
sI27011
S'b3e2'
p216
sI24452
S'e28594'
p217
sI16790
S'c2bde285'
p218
sI4998
S'88b3'
p219
sI16342
S'c2'
p220
sI20360
S'ad'
p221
sI9610
S'e285b8e2'
p222
sI18315
S'85'
p223
sI11660
S'8590'
p224
sI15170
S'85'
p225
sI11662
S'e282'
p226
sI20879
S'e285'
p227
sI24976
S'91e285'
p228
sI16787
S'e288ba'
p229
sI12692
S'e2'
p230
sI16277
S'8281'
p231
sI11158
S'e288ad'
p232
sI17815
S'87e28281'
p233
sI19868
S'8590'
p234
sI27549
S'85b0e2'
p235
sI10982
S'e2'
p236
sI17313
S'91'
p237
sI1954
S'88abe2'
p238
sI22438
S'e28289'
p239
sI18343
S'e282'
p240
sI10665
S'b6'
p241
sI8385
S'e288ba'
p242
sI7069
S'85'
p243
sI25521
S'8281e2'
p244
sI11062
S'85b0'
p245
sI18356
S'85b0e288'
p246
sI10677
S'e28289'
p247
sI10679
S'89'
p248
sI2488
S'8590e2'
p249
sI4025
S'aae288'
p250
sI23998
S'e288ad'
p251
sI1985
S'e285'
p252
sI22978
S'b6'
p253
sI11595
S'e288'
p254
sI1477
S'90e2'
p255
sI10694
S'b0e2'
p256
sI1994
S'e288abe2'
p257
sI3746
S'85b0e288'
p258
sI17795
S'b3e288'
p259
sI10707
S'e288ba'
p260
sI12758
S'94e285'
p261
sI25081
S'bd'
p262
sI24468
S'8591e285'
p263
sI9691
S'91'
p264
sI22492
S'85b8e285'
p265
sI23546
S'b6e2'
p266
sI21470
S'88b3e2'
p267
sI27104
S'88bac2bd'
p268
sI15841
S'88'
p269
sI24106
S'81e2'
p270
sI20315
S'88'
p271
sI26705
S'8594e285'
p272
sI9193
S'91'
p273
sI15974
S'e28590'
p274
sI19793
S'87e282'
p275
sI10736
S'e288abe2'
p276
sI2545
S'91'
p277
sI7668
S'8590e2'
p278
sI25001
S'8594e285'
p279
sI13816
S'88bac2'
p280
sI2041
S'e288b3e2'
p281
sI17402
S'e288'
p282
sI27562
S'b6e2'
p283
sI19797
S'e28591'
p284
s.