(dp0
I160
S'25'
p1
sI66
S'78257025'
p2
sI966
S'25686e25'
p3
sI625
S'78'
p4
sI1041
S'78257025'
p5
sI243
S'256868'
p6
sI182
S'25'
p7
sI119
S'257025'
p8
sI25
S'6e'
p9
sI410
S'25'
p10
sI93
S'25702568'
p11
s.