(dp0
I420
S'25686e25'
p1
sI263
S'70'
p2
sI937
S'7825'
p3
sI951
S'25702568'
p4
sI236
S'2570'
p5
sI1046
S'6e256e25'
p6
sI217
S'25'
p7
sI1017
S'7025'
p8
sI1018
S'25686e'
p9
sI347
S'256868'
p10
sI510
S'7025686e'
p11
s.